Certificate:
    Data:
        Version: 3 (0x2)
        Serial Number: 4604 (0x11fc)
        Signature Algorithm: sha1WithRSAEncryption
        Issuer: C=US, ST=NY, L=New York, O=Bloomberg LP, OU=CTO Office, CN=Bloomberg LP CA/emailAddress=open-tech@bloomberg.net
        Validity
            Not Before: Feb 27 06:00:00 2015 GMT
            Not After : Mar  3 06:00:00 2015 GMT
        Subject: C=US, ST=NY, L=New York, O=Bloomberg LP, OU=CTO Office, CN=khacks_spring_2015_005/emailAddress=open-tech@bloomberg.net
        Subject Public Key Info:
            Public Key Algorithm: rsaEncryption
            RSA Public Key: (1024 bit)
                Modulus (1024 bit):
                    00:ad:4f:97:b3:40:3b:96:c5:ce:3c:a3:d4:4d:be:
                    b6:4f:d7:6b:a8:05:e4:31:17:91:27:20:2e:78:a5:
                    5f:ca:02:94:19:f5:39:4e:33:bb:1c:93:a1:15:29:
                    12:b3:95:8b:dc:b1:32:46:d7:a5:6a:e8:44:2c:e6:
                    36:41:b3:8e:41:27:8b:d4:c9:35:6a:7d:c2:1e:4b:
                    43:6a:e1:58:e3:c6:21:d0:b5:82:c7:fd:9e:7e:e7:
                    85:9e:17:0f:05:bc:95:8d:8d:ad:3b:e1:fd:ba:23:
                    74:c2:6c:f2:c8:6d:01:16:62:f0:3b:a4:2a:59:6b:
                    cb:4a:ea:94:99:9a:39:c1:2b
                Exponent: 65537 (0x10001)
        X509v3 extensions:
            X509v3 Basic Constraints: 
                CA:FALSE
            Netscape Comment: 
                Easy-RSA Generated Certificate
            X509v3 Subject Key Identifier: 
                AD:7E:7B:03:A8:65:7E:6F:D9:5A:FE:20:84:14:DE:6D:00:B8:24:97
            X509v3 Authority Key Identifier: 
                keyid:F3:21:76:1F:DA:B5:E7:03:FC:ED:D7:71:B8:1C:55:2D:7E:65:5F:14
                DirName:/C=US/ST=NY/L=New York/O=Bloomberg LP/OU=CTO Office/CN=Bloomberg LP CA/emailAddress=open-tech@bloomberg.net
                serial:81:F3:7A:1C:BC:C6:E8:A2

            X509v3 Extended Key Usage: 
                TLS Web Client Authentication
            X509v3 Key Usage: 
                Digital Signature
    Signature Algorithm: sha1WithRSAEncryption
        5f:e2:63:d2:75:03:93:c0:c5:d1:08:f4:4d:76:12:2f:fd:2e:
        c0:b8:9c:03:28:92:1c:80:e8:29:93:a7:0d:68:f3:a5:70:db:
        e6:62:a6:77:c3:b1:e9:72:e7:63:de:60:08:a4:48:3d:90:20:
        c8:09:4f:fd:8b:58:6a:74:0d:ca:e0:0b:75:fe:47:b3:19:15:
        12:4e:71:9d:de:90:c0:9c:87:f8:3b:2d:6c:08:f2:cf:6d:cb:
        97:c4:72:72:96:63:8c:ed:a9:c1:9f:35:80:48:f4:09:63:73:
        e8:90:92:b6:dd:0b:db:4b:ca:88:58:51:7d:e3:e4:28:17:ce:
        6f:81
-----BEGIN CERTIFICATE-----
MIIECjCCA3OgAwIBAgICEfwwDQYJKoZIhvcNAQEFBQAwgZsxCzAJBgNVBAYTAlVT
MQswCQYDVQQIEwJOWTERMA8GA1UEBxMITmV3IFlvcmsxFTATBgNVBAoTDEJsb29t
YmVyZyBMUDETMBEGA1UECxMKQ1RPIE9mZmljZTEYMBYGA1UEAxMPQmxvb21iZXJn
IExQIENBMSYwJAYJKoZIhvcNAQkBFhdvcGVuLXRlY2hAYmxvb21iZXJnLm5ldDAe
Fw0xNTAyMjcwNjAwMDBaFw0xNTAzMDMwNjAwMDBaMIGiMQswCQYDVQQGEwJVUzEL
MAkGA1UECBMCTlkxETAPBgNVBAcTCE5ldyBZb3JrMRUwEwYDVQQKEwxCbG9vbWJl
cmcgTFAxEzARBgNVBAsTCkNUTyBPZmZpY2UxHzAdBgNVBAMUFmtoYWNrc19zcHJp
bmdfMjAxNV8wMDUxJjAkBgkqhkiG9w0BCQEWF29wZW4tdGVjaEBibG9vbWJlcmcu
bmV0MIGfMA0GCSqGSIb3DQEBAQUAA4GNADCBiQKBgQCtT5ezQDuWxc48o9RNvrZP
12uoBeQxF5EnIC54pV/KApQZ9TlOM7sck6EVKRKzlYvcsTJG16Vq6EQs5jZBs45B
J4vUyTVqfcIeS0Nq4VjjxiHQtYLH/Z5+54WeFw8FvJWNja074f26I3TCbPLIbQEW
YvA7pCpZa8tK6pSZmjnBKwIDAQABo4IBUjCCAU4wCQYDVR0TBAIwADAtBglghkgB
hvhCAQ0EIBYeRWFzeS1SU0EgR2VuZXJhdGVkIENlcnRpZmljYXRlMB0GA1UdDgQW
BBStfnsDqGV+b9la/iCEFN5tALgklzCB0AYDVR0jBIHIMIHFgBTzIXYf2rXnA/zt
13G4HFUtfmVfFKGBoaSBnjCBmzELMAkGA1UEBhMCVVMxCzAJBgNVBAgTAk5ZMREw
DwYDVQQHEwhOZXcgWW9yazEVMBMGA1UEChMMQmxvb21iZXJnIExQMRMwEQYDVQQL
EwpDVE8gT2ZmaWNlMRgwFgYDVQQDEw9CbG9vbWJlcmcgTFAgQ0ExJjAkBgkqhkiG
9w0BCQEWF29wZW4tdGVjaEBibG9vbWJlcmcubmV0ggkAgfN6HLzG6KIwEwYDVR0l
BAwwCgYIKwYBBQUHAwIwCwYDVR0PBAQDAgeAMA0GCSqGSIb3DQEBBQUAA4GBAF/i
Y9J1A5PAxdEI9E12Ei/9LsC4nAMokhyA6CmTpw1o86Vw2+ZipnfDsely52PeYAik
SD2QIMgJT/2LWGp0DcrgC3X+R7MZFRJOcZ3ekMCch/g7LWwI8s9ty5fEcnKWY4zt
qcGfNYBI9Aljc+iQkrbdC9tLyohYUX3j5CgXzm+B
-----END CERTIFICATE-----
